target datalayout = "e-m:e-p270:32:32-p271:32:32-p272:64:64-i64:64-i128:128-f80:128-n8:16:32:64-S128"
target triple = "x86_64-pc-linux-gnu"

%struct.jfrLogSubscriber = type { ptr, ptr }

@_ZZN10JfrJavaLog19subscribe_log_levelEP8_jobjectiP10JavaThreadE18subscribed_updates = internal global i8 1, align 1
@_ZL12log_tag_sets = internal global [16 x %struct.jfrLogSubscriber] zeroinitializer, align 16

; Function Attrs: mustprogress nounwind uwtable
define hidden void @_ZN10JfrJavaLog19subscribe_log_levelEP8_jobjectiP10JavaThread(ptr noundef %0, i32 noundef %1, ptr noundef %2) #1 align 2 {
  %4 = alloca ptr, align 8
  %5 = alloca i32, align 4
  %6 = alloca ptr, align 8
  store ptr %0, ptr %4, align 8
  store i32 %1, ptr %5, align 4
  store ptr %2, ptr %6, align 8
  %7 = load ptr, ptr %4, align 8
  %8 = load ptr, ptr %6, align 8
  %9 = call noundef ptr @_ZN14JfrJavaSupport17global_jni_handleEP8_jobjectP10JavaThread(ptr noundef %7, ptr noundef %8)
  %10 = load i32, ptr %5, align 4
  %11 = sext i32 %10 to i64
  %12 = getelementptr inbounds [16 x %struct.jfrLogSubscriber], ptr @_ZL12log_tag_sets, i64 0, i64 %11
  %13 = getelementptr inbounds %struct.jfrLogSubscriber, ptr %12, i32 0, i32 0
  store ptr %9, ptr %13, align 16
  %14 = load i8, ptr @_ZZN10JfrJavaLog19subscribe_log_levelEP8_jobjectiP10JavaThreadE18subscribed_updates, align 1
  %15 = trunc i8 %14 to i1
  br i1 %15, label %16, label %18

16:                                               ; preds = %3
  call void @_ZN16LogConfiguration24register_update_listenerEPFvvE(ptr noundef @_ZL17log_config_changev)
  %17 = load ptr, ptr %6, align 8
  call void @_ZL26log_config_change_internalbP10JavaThread(i1 noundef zeroext true, ptr noundef %17)
  store i8 0, ptr @_ZZN10JfrJavaLog19subscribe_log_levelEP8_jobjectiP10JavaThreadE18subscribed_updates, align 1
  br label %20

18:                                               ; preds = %3
  %19 = load ptr, ptr %6, align 8
  call void @_ZL26log_config_change_internalbP10JavaThread(i1 noundef zeroext false, ptr noundef %19)
  br label %20

20:                                               ; preds = %18, %16
  ret void
}